(lp0
(lp1
I2
aI141
aa(lp2
I2
aI181
aa(lp3
I11
aI27
aa(lp4
I16
aI32
aa(lp5
I18
aI81
aa(lp6
I20
aI94
aa(lp7
I21
aI112
aa(lp8
I24
aI172
aa(lp9
I29
aI112
aa(lp10
I30
aI39
aa(lp11
I32
aI166
aa(lp12
I35
aI69
aa(lp13
I42
aI121
aa(lp14
I43
aI241
aa(lp15
I44
aI62
aa(lp16
I44
aI82
aa(lp17
I51
aI107
aa(lp18
I52
aI176
aa(lp19
I60
aI84
aa(lp20
I62
aI151
aa(lp21
I65
aI114
aa(lp22
I65
aI124
aa(lp23
I65
aI144
aa(lp24
I65
aI194
aa(lp25
I65
aI214
aa(lp26
I65
aI264
aa(lp27
I66
aI87
aa(lp28
I68
aI266
aa(lp29
I70
aI279
aa(lp30
I71
aI97
aa(lp31
I74
aI297
aa(lp32
I76
aI102
aa(lp33
I79
aI97
aa(lp34
I85
aI114
aa(lp35
I86
aI297
aa(lp36
I87
aI141
aa(lp37
I87
aI221
aa(lp38
I87
aI261
aa(lp39
I91
aI147
aa(lp40
I91
aI297
aa(lp41
I94
aI187
aa(lp42
I97
aI136
aa(lp43
I111
aI147
aa(lp44
I112
aI296
aa(lp45
I121
aI212
aa(lp46
I125
aI134
aa(lp47
I127
aI211
aa(lp48
I135
aI189
aa(lp49
I138
aI231
aa(lp50
I146
aI297
aa(lp51
I151
aI267
aa(lp52
I155
aI199
aa(lp53
I155
aI299
aa(lp54
I184
aI212
aa(lp55
I188
aI296
aa(lp56
I190
aI279
aa(lp57
I194
aI277
aa(lp58
I195
aI209
aa(lp59
I207
aI221
aa(lp60
I210
aI289
aa(lp61
I228
aI266
aa(lp62
I230
aI289
aa(lp63
I239
aI267
aa(lp64
I239
aI277
aa(lp65
I243
aI251
aa(lp66
I246
aI267
aa(lp67
I253
aI296
aa(lp68
I256
aI262
aa(lp69
I281
aI302
aa(lp70
I289
aI302
aa.